cshared.state
FileSystemState
p0
(I1
(dp1
S'dojo_test.py'
p2
ccopy_reg
_reconstructor
p3
(cshared.file_state
FileState
p4
c__builtin__
object
p5
Ntp6
Rp7
(dp8
S'modtime'
p9
F1300938712.1358843
sS'_test_results'
p10
g3
(cshared.test_result
TestResultSet
p11
g5
Ntp12
Rp13
(dp14
S'results'
p15
(lp16
g3
(cshared.test_result
TestResult
p17
g5
Ntp18
Rp19
(dp20
S'name'
p21
S'Failure: ImportError (No module named fizzbuzz)'
p22
sS'outputs'
p23
(lp24
(S'traceback'
p25
(cexceptions
ImportError
p26
S'No module named fizzbuzz'
p27
(lp28
(S'/usr/local/lib/python2.6/dist-packages/nose-1.0.0-py2.6.egg/nose/loader.py'
p29
I399
S'loadTestsFromName'
p30
S'address=addr.totuple())])'
p31
tp32
a(S'/usr/local/lib/python2.6/dist-packages/nose-1.0.0-py2.6.egg/nose/importer.py'
p33
I39
S'importFromPath'
p34
S'return self.importFromDir(dir_path, fqname)'
p35
tp36
a(S'/usr/local/lib/python2.6/dist-packages/nose-1.0.0-py2.6.egg/nose/importer.py'
p37
I90
S'importFromDir'
p38
S'release_lock()'
p39
tp40
a(S'/home/pbalduino/projetos/python_dojo/dojo_test.py'
p41
I2
S'<module>'
p42
S'import fizzbuzz'
p43
tp44
atp45
tp46
a(S'stdout'
p47
S''
p48
tp49
a(S'logging'
p50
(lp51
tp52
asS'address'
p53
(S'/home/pbalduino/projetos/python_dojo/dojo_test.py'
p54
S'dojo_test'
p55
Ntp56
sS'state'
p57
S'error'
p58
sS'attrs'
p59
(lp60
S'id'
p61
ag57
ag21
aS'time'
p62
aS'path'
p63
ag53
asg62
F1300938712.5354519
sg63
S'dojo_test.py'
p64
sg61
S'nose.failure.Failure.runTest'
p65
sbasbsS'dependencies'
p66
(lp67
sS'path'
p68
S'dojo_test.py'
p69
sbsS'dojo.py'
p70
g3
(g4
g5
Ntp71
Rp72
(dp73
g9
F1300938691.0
sg10
g3
(g11
g5
Ntp74
Rp75
(dp76
g15
(lp77
sbsg66
(lp78
sg68
g70
sbsS'fizzbuzz.py'
p79
g3
(g4
g5
Ntp80
Rp81
(dp82
S'modtime'
p83
F1300964978.0852959
sS'_test_results'
p84
g3
(g11
g5
Ntp85
Rp86
(dp87
S'results'
p88
(lp89
sbsS'dependencies'
p90
(lp91
sS'path'
p92
S'fizzbuzz.py'
p93
sbsS'fizzbuzz_test.py'
p94
g3
(g4
g5
Ntp95
Rp96
(dp97
g83
F1300964962.2090466
sg84
g3
(g11
g5
Ntp98
Rp99
(dp100
g88
(lp101
g3
(g17
g5
Ntp102
Rp103
(dp104
S'name'
p105
S'test_when_number_is_multiple_of_15_should_return_FizzBuzz (fizzbuzz_test.TestDojo)'
p106
sS'outputs'
p107
(lp108
(S'stdout'
p109
Ntp110
asS'time'
p111
F1300964978.4470971
sS'state'
p112
S'success'
p113
sS'attrs'
p114
(lp115
S'id'
p116
ag112
ag105
ag111
aS'path'
p117
aS'address'
p118
asg118
(S'/home/pbalduino/projetos/python_dojo/fizzbuzz_test.py'
p119
S'fizzbuzz_test'
p120
S'TestDojo.test_when_number_is_multiple_of_15_should_return_FizzBuzz'
p121
tp122
sg117
S'fizzbuzz_test.py'
p123
sg116
S'fizzbuzz_test.TestDojo.test_when_number_is_multiple_of_15_should_return_FizzBuzz'
p124
sbag3
(g17
g5
Ntp125
Rp126
(dp127
S'name'
p128
S'test_when_number_is_multiple_of_3_should_return_Fizz (fizzbuzz_test.TestDojo)'
p129
sS'outputs'
p130
(lp131
(S'stdout'
p132
Ntp133
asS'time'
p134
F1300964978.4470971
sS'state'
p135
S'success'
p136
sS'attrs'
p137
(lp138
S'id'
p139
ag135
ag128
ag134
aS'path'
p140
aS'address'
p141
asg141
(S'/home/pbalduino/projetos/python_dojo/fizzbuzz_test.py'
p142
S'fizzbuzz_test'
p143
S'TestDojo.test_when_number_is_multiple_of_3_should_return_Fizz'
p144
tp145
sg140
S'fizzbuzz_test.py'
p146
sg139
S'fizzbuzz_test.TestDojo.test_when_number_is_multiple_of_3_should_return_Fizz'
p147
sbag3
(g17
g5
Ntp148
Rp149
(dp150
S'name'
p151
S'test_when_number_is_multiple_of_5_should_return_Buzz (fizzbuzz_test.TestDojo)'
p152
sS'outputs'
p153
(lp154
(S'stdout'
p155
Ntp156
asS'time'
p157
F1300964978.4470971
sS'state'
p158
S'success'
p159
sS'attrs'
p160
(lp161
S'id'
p162
ag158
ag151
ag157
aS'path'
p163
aS'address'
p164
asg164
(S'/home/pbalduino/projetos/python_dojo/fizzbuzz_test.py'
p165
S'fizzbuzz_test'
p166
S'TestDojo.test_when_number_is_multiple_of_5_should_return_Buzz'
p167
tp168
sg163
S'fizzbuzz_test.py'
p169
sg162
S'fizzbuzz_test.TestDojo.test_when_number_is_multiple_of_5_should_return_Buzz'
p170
sbag3
(g17
g5
Ntp171
Rp172
(dp173
S'name'
p174
S'test_when_number_is_not_multiple_of_3_or_5_should_return_itself (fizzbuzz_test.TestDojo)'
p175
sS'outputs'
p176
(lp177
(S'stdout'
p178
Ntp179
asS'time'
p180
F1300964978.4470971
sS'state'
p181
S'success'
p182
sS'attrs'
p183
(lp184
S'id'
p185
ag181
ag174
ag180
aS'path'
p186
aS'address'
p187
asg187
(S'/home/pbalduino/projetos/python_dojo/fizzbuzz_test.py'
p188
S'fizzbuzz_test'
p189
S'TestDojo.test_when_number_is_not_multiple_of_3_or_5_should_return_itself'
p190
tp191
sg186
S'fizzbuzz_test.py'
p192
sg185
S'fizzbuzz_test.TestDojo.test_when_number_is_not_multiple_of_3_or_5_should_return_itself'
p193
sbasbsg90
(lp194
S'fizzbuzz.py'
p195
asg92
S'fizzbuzz_test.py'
p196
sbstp197
Rp198
.